Certificate:
    Data:
        Version: 3 (0x2)
        Serial Number: 1 (0x1)
    Signature Algorithm: sha1WithRSAEncryption
        Issuer: DC=org, DC=wcogtas, O=WCO GTAS, OU=GTAS, CN=GTAS
        Validity
            Not Before: Feb 11 15:03:10 2020 GMT
            Not After : Feb 10 15:03:10 2022 GMT
        Subject: DC=org, DC=wcogtas, O=WCO GTAS, OU=GTAS, CN=GTAS
        Subject Public Key Info:
            Public Key Algorithm: rsaEncryption
                Public-Key: (2048 bit)
                Modulus:
                    00:de:c4:a2:da:c2:39:a7:31:58:ea:5a:4d:90:a9:
                    be:cd:55:b2:90:f3:0b:6e:83:51:e7:be:93:06:3f:
                    db:0f:64:c5:6e:80:d4:5c:6f:b8:a9:ff:8e:8e:e7:
                    8d:86:a4:75:51:28:0f:c2:ea:04:14:81:9a:09:20:
                    52:fd:fb:24:9d:c1:f2:74:1a:4b:1c:ad:6b:b8:48:
                    df:a9:9a:7a:16:90:53:c4:51:f3:b2:3a:63:e0:f3:
                    e3:79:e5:93:71:8d:66:24:ab:9c:05:9d:c0:3a:22:
                    d0:8b:3b:2c:d4:5c:fb:69:aa:8b:3c:81:d7:68:4c:
                    07:a3:4a:c4:42:d0:e2:a1:38:ee:16:02:2f:0a:b3:
                    04:61:25:f2:a1:bb:75:75:cd:34:87:1d:8e:a1:c9:
                    e9:b5:75:61:a5:f7:f4:8c:86:df:fa:e2:21:5f:a3:
                    d5:e4:06:1d:59:ae:68:fc:82:d3:be:39:87:20:f8:
                    13:4b:e2:d0:28:41:f9:99:d2:45:49:90:7c:6e:df:
                    95:c7:9f:75:0b:60:70:c1:47:51:bc:51:25:1e:e1:
                    9b:32:3d:fa:ca:49:9f:ac:4a:31:87:04:53:af:03:
                    f7:21:3b:e4:2b:b4:71:13:79:54:9d:0d:3f:0d:fd:
                    df:a4:b8:5e:79:dc:c0:a6:e8:50:ec:fc:72:63:41:
                    94:69
                Exponent: 65537 (0x10001)
        X509v3 extensions:
            X509v3 Key Usage: critical
                Digital Signature, Key Encipherment
            X509v3 Basic Constraints: 
                CA:FALSE
            X509v3 Extended Key Usage: 
                TLS Web Server Authentication, TLS Web Client Authentication
            X509v3 Subject Key Identifier: 
                38:C1:89:A6:D6:19:69:03:02:85:E9:53:A5:D9:57:8D:2B:C5:AD:1A
            X509v3 Authority Key Identifier: 
                keyid:41:E1:69:61:84:5C:F2:A2:9F:E6:73:2B:6C:8C:DA:BE:6B:C1:39:A7

            X509v3 Subject Alternative Name: 
                DNS:yourdomain.tld
    Signature Algorithm: sha1WithRSAEncryption
         aa:6b:31:14:77:42:0c:d4:4a:4e:61:fe:24:84:01:c6:3f:fb:
         4a:9b:7a:b0:d3:c1:89:2d:63:cc:bb:e6:97:40:7a:72:f1:09:
         a1:4c:0e:ff:24:69:a4:29:56:ec:a6:27:82:c7:20:a5:12:b4:
         bc:3b:ea:12:13:8d:a8:00:4b:3c:66:e7:78:7d:56:a9:41:7c:
         4d:d9:b1:6f:30:33:38:43:e1:18:59:01:f7:62:16:e7:01:36:
         a1:69:75:20:62:99:db:f5:6e:76:b8:1c:53:49:a7:fd:4d:67:
         8e:07:53:d1:1c:57:6b:d1:ba:14:a3:16:60:bc:af:65:07:b7:
         2d:5d:91:39:3a:72:d1:d8:d7:a4:03:00:fa:57:72:95:31:cd:
         64:aa:82:02:ac:4b:03:47:a3:63:5d:b4:e8:86:be:7a:e3:54:
         13:fe:72:68:fb:4e:1a:f1:f2:c5:06:3f:9b:31:a1:df:b0:f9:
         23:bb:f2:e7:7e:f8:ee:bb:2c:2e:9e:f6:48:90:4a:7d:ee:fd:
         b9:a1:86:53:0f:08:ef:00:8c:f6:f7:ff:7c:9b:ab:bc:5c:e7:
         58:30:b0:e6:67:eb:6a:79:7c:c6:b1:3c:c3:18:57:d7:e8:f7:
         2c:dd:78:f5:75:71:c7:22:ef:c8:ab:81:82:2e:e7:96:ea:32:
         64:37:af:e3
-----BEGIN CERTIFICATE-----
MIID0jCCArqgAwIBAgIBATANBgkqhkiG9w0BAQUFADBfMRMwEQYKCZImiZPyLGQB
GRYDb3JnMRcwFQYKCZImiZPyLGQBGRYHd2NvZ3RhczERMA8GA1UECgwIV0NPIEdU
QVMxDTALBgNVBAsMBEdUQVMxDTALBgNVBAMMBEdUQVMwHhcNMjAwMjExMTUwMzEw
WhcNMjIwMjEwMTUwMzEwWjBfMRMwEQYKCZImiZPyLGQBGRYDb3JnMRcwFQYKCZIm
iZPyLGQBGRYHd2NvZ3RhczERMA8GA1UECgwIV0NPIEdUQVMxDTALBgNVBAsMBEdU
QVMxDTALBgNVBAMMBEdUQVMwggEiMA0GCSqGSIb3DQEBAQUAA4IBDwAwggEKAoIB
AQDexKLawjmnMVjqWk2Qqb7NVbKQ8wtug1HnvpMGP9sPZMVugNRcb7ip/46O542G
pHVRKA/C6gQUgZoJIFL9+ySdwfJ0GkscrWu4SN+pmnoWkFPEUfOyOmPg8+N55ZNx
jWYkq5wFncA6ItCLOyzUXPtpqos8gddoTAejSsRC0OKhOO4WAi8KswRhJfKhu3V1
zTSHHY6hyem1dWGl9/SMht/64iFfo9XkBh1Zrmj8gtO+OYcg+BNL4tAoQfmZ0kVJ
kHxu35XHn3ULYHDBR1G8USUe4ZsyPfrKSZ+sSjGHBFOvA/chO+QrtHETeVSdDT8N
/d+kuF553MCm6FDs/HJjQZRpAgMBAAGjgZgwgZUwDgYDVR0PAQH/BAQDAgWgMAkG
A1UdEwQCMAAwHQYDVR0lBBYwFAYIKwYBBQUHAwEGCCsGAQUFBwMCMB0GA1UdDgQW
BBQ4wYmm1hlpAwKF6VOl2VeNK8WtGjAfBgNVHSMEGDAWgBRB4WlhhFzyop/mcyts
jNq+a8E5pzAZBgNVHREEEjAQgg55b3VyZG9tYWluLnRsZDANBgkqhkiG9w0BAQUF
AAOCAQEAqmsxFHdCDNRKTmH+JIQBxj/7Spt6sNPBiS1jzLvml0B6cvEJoUwO/yRp
pClW7KYngscgpRK0vDvqEhONqABLPGbneH1WqUF8TdmxbzAzOEPhGFkB92IW5wE2
oWl1IGKZ2/VudrgcU0mn/U1njgdT0RxXa9G6FKMWYLyvZQe3LV2ROTpy0djXpAMA
+ldylTHNZKqCAqxLA0ejY1206Ia+euNUE/5yaPtOGvHyxQY/mzGh37D5I7vy5374
7rssLp72SJBKfe79uaGGUw8I7wCM9vf/fJurvFznWDCw5mfranl8xrE8wxhX1+j3
LN149XVxxyLvyKuBgi7nluoyZDev4w==
-----END CERTIFICATE-----
